; Function Attrs: nounwind uwtable
define void @dtls1_increment_epoch(ptr noundef %0, i32 noundef %1) local_unnamed_addr #0 {
  %3 = and i32 %1, 1
  %.not = icmp eq i32 %3, 0
  %4 = getelementptr inbounds nuw i8, ptr %0, i64 3296
  %5 = load ptr, ptr %4, align 8, !tbaa !87
  br i1 %.not, label %9, label %6

6:                                                ; preds = %2
  %7 = load i16, ptr %5, align 8, !tbaa !136
  %8 = add i16 %7, 1
  store i16 %8, ptr %5, align 8, !tbaa !136
  tail call void @dtls1_clear_received_buffer(ptr noundef %0) #7
  br label %13

9:                                                ; preds = %2
  %10 = getelementptr inbounds nuw i8, ptr %5, i64 2
  %11 = load i16, ptr %10, align 2, !tbaa !160
  %12 = add i16 %11, 1
  store i16 %12, ptr %10, align 2, !tbaa !160
  br label %13

13:                                               ; preds = %9, %6
  ret void
}